; Function Attrs: nounwind uwtable
define ptr @l_Lean_Elab_elabTerminationHints___rarg___lambda__9(ptr noundef %0, ptr noundef %1, ptr readnone captures(none) %2) local_unnamed_addr #1 {
  %4 = getelementptr inbounds nuw i8, ptr %0, i64 8
  %5 = getelementptr inbounds nuw i8, ptr %0, i64 16
  %6 = load ptr, ptr %5, align 8, !tbaa !10
  %7 = ptrtoint ptr %6 to i64
  %8 = and i64 %7, 1
  %.not = icmp eq i64 %8, 0
  br i1 %.not, label %9, label %lean_inc.exit16

9:                                                ; preds = %3
  %.val.i = load i32, ptr %6, align 4, !tbaa !4
  %10 = icmp sgt i32 %.val.i, 0
  br i1 %10, label %11, label %13, !prof !9

11:                                               ; preds = %9
  %12 = add nuw i32 %.val.i, 1
  store i32 %12, ptr %6, align 4, !tbaa !4
  br label %lean_inc.exit16

13:                                               ; preds = %9
  %.not.i19 = icmp eq i32 %.val.i, 0
  br i1 %.not.i19, label %lean_inc.exit16, label %14

14:                                               ; preds = %13
  tail call void @lean_inc_ref_cold(ptr noundef nonnull %6) #8
  br label %lean_inc.exit16

lean_inc.exit16:                                  ; preds = %14, %13, %11, %3
  %15 = load ptr, ptr %4, align 8, !tbaa !10
  %16 = ptrtoint ptr %15 to i64
  %17 = and i64 %16, 1
  %.not26 = icmp eq i64 %17, 0
  br i1 %.not26, label %18, label %lean_inc.exit15

18:                                               ; preds = %lean_inc.exit16
  %.val.i20 = load i32, ptr %15, align 4, !tbaa !4
  %19 = icmp sgt i32 %.val.i20, 0
  br i1 %19, label %20, label %22, !prof !9

20:                                               ; preds = %18
  %21 = add nuw i32 %.val.i20, 1
  store i32 %21, ptr %15, align 4, !tbaa !4
  br label %lean_inc.exit15

22:                                               ; preds = %18
  %.not.i21 = icmp eq i32 %.val.i20, 0
  br i1 %.not.i21, label %lean_inc.exit15, label %23

23:                                               ; preds = %22
  tail call void @lean_inc_ref_cold(ptr noundef nonnull %15) #8
  br label %lean_inc.exit15

lean_inc.exit15:                                  ; preds = %23, %22, %20, %lean_inc.exit16
  %24 = ptrtoint ptr %0 to i64
  %25 = and i64 %24, 1
  %.not27 = icmp eq i64 %25, 0
  br i1 %.not27, label %26, label %lean_dec.exit14

26:                                               ; preds = %lean_inc.exit15
  %27 = load i32, ptr %0, align 4, !tbaa !4
  %28 = icmp sgt i32 %27, 1
  br i1 %28, label %29, label %31, !prof !9

29:                                               ; preds = %26
  %30 = add nsw i32 %27, -1
  store i32 %30, ptr %0, align 4, !tbaa !4
  br label %lean_dec.exit14

31:                                               ; preds = %26
  %.not.i = icmp eq i32 %27, 0
  br i1 %.not.i, label %lean_dec.exit14, label %32

32:                                               ; preds = %31
  tail call void @lean_dec_ref_cold(ptr noundef nonnull %0) #8
  br label %lean_dec.exit14

lean_dec.exit14:                                  ; preds = %32, %31, %29, %lean_inc.exit15
  %33 = getelementptr inbounds nuw i8, ptr %15, i64 16
  %34 = load ptr, ptr %33, align 8, !tbaa !10
  %35 = ptrtoint ptr %34 to i64
  %36 = and i64 %35, 1
  %.not28 = icmp eq i64 %36, 0
  br i1 %.not28, label %37, label %lean_inc.exit

37:                                               ; preds = %lean_dec.exit14
  %.val.i23 = load i32, ptr %34, align 4, !tbaa !4
  %38 = icmp sgt i32 %.val.i23, 0
  br i1 %38, label %39, label %41, !prof !9

39:                                               ; preds = %37
  %40 = add nuw i32 %.val.i23, 1
  store i32 %40, ptr %34, align 4, !tbaa !4
  br label %lean_inc.exit

41:                                               ; preds = %37
  %.not.i24 = icmp eq i32 %.val.i23, 0
  br i1 %.not.i24, label %lean_inc.exit, label %42

42:                                               ; preds = %41
  tail call void @lean_inc_ref_cold(ptr noundef nonnull %34) #8
  br label %lean_inc.exit

lean_inc.exit:                                    ; preds = %42, %41, %39, %lean_dec.exit14
  br i1 %.not26, label %43, label %lean_dec.exit

43:                                               ; preds = %lean_inc.exit
  %44 = load i32, ptr %15, align 4, !tbaa !4
  %45 = icmp sgt i32 %44, 1
  br i1 %45, label %46, label %48, !prof !9

46:                                               ; preds = %43
  %47 = add nsw i32 %44, -1
  store i32 %47, ptr %15, align 4, !tbaa !4
  br label %lean_dec.exit

48:                                               ; preds = %43
  %.not.i17 = icmp eq i32 %44, 0
  br i1 %.not.i17, label %lean_dec.exit, label %49

49:                                               ; preds = %48
  tail call void @lean_dec_ref_cold(ptr noundef nonnull %15) #8
  br label %lean_dec.exit

lean_dec.exit:                                    ; preds = %49, %48, %46, %lean_inc.exit
  %50 = tail call ptr @lean_apply_2(ptr noundef %34, ptr noundef nonnull inttoptr (i64 1 to ptr), ptr noundef nonnull inttoptr (i64 1 to ptr)) #8
  %51 = tail call ptr @lean_apply_4(ptr noundef %6, ptr noundef nonnull inttoptr (i64 1 to ptr), ptr noundef nonnull inttoptr (i64 1 to ptr), ptr noundef %50, ptr noundef %1) #8
  ret ptr %51
}